; Function Attrs: mustprogress nofree nounwind willreturn memory(write, argmem: readwrite) uwtable
define internal { double, double } @_ZL13cea_s_forward5PJ_LPP8PJconsts(double %0, double %1, ptr nocapture noundef readonly %2) #5 {
  %4 = getelementptr inbounds i8, ptr %2, i64 488
  %5 = load double, ptr %4, align 8
  %6 = fmul double %5, %0
  %7 = tail call double @sin(double noundef %1) #8
  %8 = load double, ptr %4, align 8
  %9 = fdiv double %7, %8
  %.fca.0.insert = insertvalue { double, double } poison, double %6, 0
  %.fca.1.insert = insertvalue { double, double } %.fca.0.insert, double %9, 1
  ret { double, double } %.fca.1.insert
}